target datalayout = "e-m:e-p270:32:32-p271:32:32-p272:64:64-i64:64-i128:128-f80:128-n8:16:32:64-S128"
target triple = "x86_64-pc-linux-gnu"

%struct.UFILE = type { ptr, ptr, ptr, %struct.u_localized_string, [1024 x i16], i8, i32 }
%struct.u_localized_string = type { ptr, ptr, ptr, %struct.ULocaleBundle }
%struct.ULocaleBundle = type { ptr, [5 x ptr], i8 }

; Function Attrs: mustprogress uwtable
define void @_Z23ufile_flush_translit_77P5UFILE(ptr noundef %0) #0 {
  %2 = alloca ptr, align 8
  store ptr %0, ptr %2, align 8, !tbaa !3
  %3 = load ptr, ptr %2, align 8, !tbaa !3
  %4 = icmp ne ptr %3, null
  br i1 %4, label %5, label %10

5:                                                ; preds = %1
  %6 = load ptr, ptr %2, align 8, !tbaa !3
  %7 = getelementptr inbounds nuw %struct.UFILE, ptr %6, i32 0, i32 0
  %8 = load ptr, ptr %7, align 8, !tbaa !15
  %9 = icmp ne ptr %8, null
  br i1 %9, label %11, label %10

10:                                               ; preds = %5, %1
  br label %14

11:                                               ; preds = %5
  %12 = load ptr, ptr %2, align 8, !tbaa !3
  %13 = call i32 @u_file_write_flush_77(ptr noundef null, i32 noundef 0, ptr noundef %12, i8 noundef signext 0, i8 noundef signext 1)
  br label %14

14:                                               ; preds = %11, %10
  ret void
}