; Function Attrs: mustprogress uwtable
define void @_Z23ufile_flush_translit_77P5UFILE(ptr noundef %0) local_unnamed_addr #0 {
  %.not = icmp eq ptr %0, null
  br i1 %.not, label %6, label %2

2:                                                ; preds = %1
  %3 = load ptr, ptr %0, align 8, !tbaa !7
  %.not3 = icmp eq ptr %3, null
  br i1 %.not3, label %6, label %4

4:                                                ; preds = %2
  %5 = tail call i32 @u_file_write_flush_77(ptr noundef null, i32 noundef 0, ptr noundef nonnull %0, i8 noundef signext 0, i8 noundef signext 1)
  br label %6

6:                                                ; preds = %1, %2, %4
  ret void
}